target datalayout = "e-m:e-p270:32:32-p271:32:32-p272:64:64-i64:64-i128:128-f80:128-n8:16:32:64-S128"
target triple = "x86_64-pc-linux-gnu"

%struct.jvmtiThreadInfo = type { ptr, i32, i8, ptr, ptr }
%struct.BackendGlobalData = type <{ ptr, ptr, i8, i8, i8, i8, i8, i8, i8, i8, i8, [3 x i8], i32, ptr, ptr, ptr, ptr, ptr, ptr, ptr, ptr, ptr, ptr, ptr, ptr, ptr, i32, %struct.jvmtiCapabilities, i8, [3 x i8], %struct.jvmtiEventCallbacks, ptr, ptr, ptr, ptr, ptr, ptr, ptr, i32, [4 x i8], ptr, i64, i32, [4 x i8], ptr, i32, i32, i8, i8, [6 x i8] }>
%struct.jvmtiCapabilities = type { i64, i64 }
%struct.jvmtiEventCallbacks = type { ptr, ptr, ptr, ptr, ptr, ptr, ptr, ptr, ptr, ptr, ptr, ptr, ptr, ptr, ptr, ptr, ptr, ptr, ptr, ptr, ptr, ptr, ptr, ptr, ptr, ptr, ptr, ptr, ptr, ptr, ptr, ptr, ptr, ptr, ptr, ptr, ptr, ptr, ptr }
%struct.jvmtiInterface_1_ = type { ptr, ptr, ptr, ptr, ptr, ptr, ptr, ptr, ptr, ptr, ptr, ptr, ptr, ptr, ptr, ptr, ptr, ptr, ptr, ptr, ptr, ptr, ptr, ptr, ptr, ptr, ptr, ptr, ptr, ptr, ptr, ptr, ptr, ptr, ptr, ptr, ptr, ptr, ptr, ptr, ptr, ptr, ptr, ptr, ptr, ptr, ptr, ptr, ptr, ptr, ptr, ptr, ptr, ptr, ptr, ptr, ptr, ptr, ptr, ptr, ptr, ptr, ptr, ptr, ptr, ptr, ptr, ptr, ptr, ptr, ptr, ptr, ptr, ptr, ptr, ptr, ptr, ptr, ptr, ptr, ptr, ptr, ptr, ptr, ptr, ptr, ptr, ptr, ptr, ptr, ptr, ptr, ptr, ptr, ptr, ptr, ptr, ptr, ptr, ptr, ptr, ptr, ptr, ptr, ptr, ptr, ptr, ptr, ptr, ptr, ptr, ptr, ptr, ptr, ptr, ptr, ptr, ptr, ptr, ptr, ptr, ptr, ptr, ptr, ptr, ptr, ptr, ptr, ptr, ptr, ptr, ptr, ptr, ptr, ptr, ptr, ptr, ptr, ptr, ptr, ptr, ptr, ptr, ptr, ptr, ptr, ptr, ptr, ptr, ptr, ptr, ptr, ptr, ptr, ptr, ptr }
%struct.JNINativeInterface_ = type { ptr, ptr, ptr, ptr, ptr, ptr, ptr, ptr, ptr, ptr, ptr, ptr, ptr, ptr, ptr, ptr, ptr, ptr, ptr, ptr, ptr, ptr, ptr, ptr, ptr, ptr, ptr, ptr, ptr, ptr, ptr, ptr, ptr, ptr, ptr, ptr, ptr, ptr, ptr, ptr, ptr, ptr, ptr, ptr, ptr, ptr, ptr, ptr, ptr, ptr, ptr, ptr, ptr, ptr, ptr, ptr, ptr, ptr, ptr, ptr, ptr, ptr, ptr, ptr, ptr, ptr, ptr, ptr, ptr, ptr, ptr, ptr, ptr, ptr, ptr, ptr, ptr, ptr, ptr, ptr, ptr, ptr, ptr, ptr, ptr, ptr, ptr, ptr, ptr, ptr, ptr, ptr, ptr, ptr, ptr, ptr, ptr, ptr, ptr, ptr, ptr, ptr, ptr, ptr, ptr, ptr, ptr, ptr, ptr, ptr, ptr, ptr, ptr, ptr, ptr, ptr, ptr, ptr, ptr, ptr, ptr, ptr, ptr, ptr, ptr, ptr, ptr, ptr, ptr, ptr, ptr, ptr, ptr, ptr, ptr, ptr, ptr, ptr, ptr, ptr, ptr, ptr, ptr, ptr, ptr, ptr, ptr, ptr, ptr, ptr, ptr, ptr, ptr, ptr, ptr, ptr, ptr, ptr, ptr, ptr, ptr, ptr, ptr, ptr, ptr, ptr, ptr, ptr, ptr, ptr, ptr, ptr, ptr, ptr, ptr, ptr, ptr, ptr, ptr, ptr, ptr, ptr, ptr, ptr, ptr, ptr, ptr, ptr, ptr, ptr, ptr, ptr, ptr, ptr, ptr, ptr, ptr, ptr, ptr, ptr, ptr, ptr, ptr, ptr, ptr, ptr, ptr, ptr, ptr, ptr, ptr, ptr, ptr, ptr, ptr, ptr, ptr, ptr, ptr, ptr, ptr, ptr, ptr, ptr, ptr, ptr, ptr, ptr, ptr, ptr, ptr, ptr, ptr, ptr, ptr }

@gdata = external global ptr, align 8
@.str.16 = private unnamed_addr constant [6 x i8] c"JVMTI\00", align 1
@.str.17 = private unnamed_addr constant [62 x i8] c"src/jdk.jdwp.agent/share/native/libjdwp/ThreadReferenceImpl.c\00", align 1
@.str.18 = private unnamed_addr constant [5 x i8] c"%s()\00", align 1
@.str.19 = private unnamed_addr constant [14 x i8] c"GetThreadInfo\00", align 1
@.str.20 = private unnamed_addr constant [4 x i8] c"JNI\00", align 1
@.str.21 = private unnamed_addr constant [14 x i8] c"PopLocalFrame\00", align 1

; Function Attrs: nounwind uwtable
define internal zeroext i8 @threadGroup(ptr noundef %0, ptr noundef %1) #0 {
  %3 = alloca i8, align 1
  %4 = alloca ptr, align 8
  %5 = alloca ptr, align 8
  %6 = alloca ptr, align 8
  %7 = alloca ptr, align 8
  %8 = alloca %struct.jvmtiThreadInfo, align 8
  %9 = alloca i32, align 4
  store ptr %0, ptr %4, align 8
  store ptr %1, ptr %5, align 8
  %10 = call ptr @getEnv()
  store ptr %10, ptr %6, align 8
  %11 = load ptr, ptr %6, align 8
  %12 = load ptr, ptr %4, align 8
  %13 = call ptr @inStream_readThreadRef(ptr noundef %11, ptr noundef %12)
  store ptr %13, ptr %7, align 8
  %14 = load ptr, ptr %4, align 8
  %15 = call zeroext i16 @inStream_error(ptr noundef %14)
  %16 = icmp ne i16 %15, 0
  br i1 %16, label %17, label %18

17:                                               ; preds = %2
  store i8 1, ptr %3, align 1
  br label %79

18:                                               ; preds = %2
  %19 = load ptr, ptr %7, align 8
  %20 = call zeroext i8 @threadControl_isDebugThread(ptr noundef %19)
  %21 = icmp ne i8 %20, 0
  br i1 %21, label %22, label %24

22:                                               ; preds = %18
  %23 = load ptr, ptr %5, align 8
  call void @outStream_setError(ptr noundef %23, i16 noundef zeroext 10)
  store i8 1, ptr %3, align 1
  br label %79

24:                                               ; preds = %18
  %25 = load ptr, ptr %6, align 8
  call void @createLocalRefSpace(ptr noundef %25, i32 noundef 1)
  call void @llvm.memset.p0.i64(ptr align 8 %8, i8 0, i64 32, i1 false)
  %26 = load ptr, ptr @gdata, align 8
  %27 = getelementptr inbounds %struct.BackendGlobalData, ptr %26, i32 0, i32 38
  %28 = load i32, ptr %27, align 8
  %29 = and i32 %28, 4
  %30 = icmp ne i32 %29, 0
  br i1 %30, label %31, label %32

31:                                               ; preds = %24
  call void @log_message_begin(ptr noundef @.str.16, ptr noundef @.str.17, i32 noundef 176)
  call void (ptr, ...) @log_message_end(ptr noundef @.str.18, ptr noundef @.str.19)
  br label %33

32:                                               ; preds = %24
  br label %33

33:                                               ; preds = %32, %31
  %34 = load ptr, ptr @gdata, align 8
  %35 = getelementptr inbounds %struct.BackendGlobalData, ptr %34, i32 0, i32 0
  %36 = load ptr, ptr %35, align 8
  %37 = load ptr, ptr %36, align 8
  %38 = getelementptr inbounds %struct.jvmtiInterface_1_, ptr %37, i32 0, i32 8
  %39 = load ptr, ptr %38, align 8
  %40 = load ptr, ptr @gdata, align 8
  %41 = getelementptr inbounds %struct.BackendGlobalData, ptr %40, i32 0, i32 0
  %42 = load ptr, ptr %41, align 8
  %43 = load ptr, ptr %7, align 8
  %44 = call i32 %39(ptr noundef %42, ptr noundef %43, ptr noundef %8)
  store i32 %44, ptr %9, align 4
  %45 = load i32, ptr %9, align 4
  %46 = icmp ne i32 %45, 0
  br i1 %46, label %47, label %51

47:                                               ; preds = %33
  %48 = load ptr, ptr %5, align 8
  %49 = load i32, ptr %9, align 4
  %50 = call zeroext i16 @map2jdwpError(i32 noundef %49)
  call void @outStream_setError(ptr noundef %48, i16 noundef zeroext %50)
  br label %57

51:                                               ; preds = %33
  %52 = load ptr, ptr %6, align 8
  %53 = load ptr, ptr %5, align 8
  %54 = getelementptr inbounds %struct.jvmtiThreadInfo, ptr %8, i32 0, i32 3
  %55 = load ptr, ptr %54, align 8
  %56 = call zeroext i16 @outStream_writeObjectRef(ptr noundef %52, ptr noundef %53, ptr noundef %55)
  br label %57

57:                                               ; preds = %51, %47
  %58 = getelementptr inbounds %struct.jvmtiThreadInfo, ptr %8, i32 0, i32 0
  %59 = load ptr, ptr %58, align 8
  %60 = icmp ne ptr %59, null
  br i1 %60, label %61, label %64

61:                                               ; preds = %57
  %62 = getelementptr inbounds %struct.jvmtiThreadInfo, ptr %8, i32 0, i32 0
  %63 = load ptr, ptr %62, align 8
  call void @jvmtiDeallocate(ptr noundef %63)
  br label %64

64:                                               ; preds = %61, %57
  %65 = load ptr, ptr @gdata, align 8
  %66 = getelementptr inbounds %struct.BackendGlobalData, ptr %65, i32 0, i32 38
  %67 = load i32, ptr %66, align 8
  %68 = and i32 %67, 2
  %69 = icmp ne i32 %68, 0
  br i1 %69, label %70, label %71

70:                                               ; preds = %64
  call void @log_message_begin(ptr noundef @.str.20, ptr noundef @.str.17, i32 noundef 188)
  call void (ptr, ...) @log_message_end(ptr noundef @.str.18, ptr noundef @.str.21)
  br label %72

71:                                               ; preds = %64
  br label %72

72:                                               ; preds = %71, %70
  %73 = load ptr, ptr %6, align 8
  %74 = load ptr, ptr %73, align 8
  %75 = getelementptr inbounds %struct.JNINativeInterface_, ptr %74, i32 0, i32 20
  %76 = load ptr, ptr %75, align 8
  %77 = load ptr, ptr %6, align 8
  %78 = call ptr %76(ptr noundef %77, ptr noundef null)
  store i8 1, ptr %3, align 1
  br label %79

79:                                               ; preds = %72, %22, %17
  %80 = load i8, ptr %3, align 1
  ret i8 %80
}