; Function Attrs: nounwind uwtable
define internal noundef zeroext i8 @threadGroup(ptr noundef %0, ptr noundef %1) #0 {
  %3 = alloca %struct.jvmtiThreadInfo, align 8
  %4 = tail call ptr @getEnv() #4
  %5 = tail call ptr @inStream_readThreadRef(ptr noundef %4, ptr noundef %0) #4
  %6 = tail call zeroext i16 @inStream_error(ptr noundef %0) #4
  %.not = icmp eq i16 %6, 0
  br i1 %.not, label %7, label %43

7:                                                ; preds = %2
  %8 = tail call zeroext i8 @threadControl_isDebugThread(ptr noundef %5) #4
  %.not15 = icmp eq i8 %8, 0
  br i1 %.not15, label %10, label %9

9:                                                ; preds = %7
  tail call void @outStream_setError(ptr noundef %1, i16 noundef zeroext 10) #4
  br label %43

10:                                               ; preds = %7
  tail call void @createLocalRefSpace(ptr noundef %4, i32 noundef 1) #4
  call void @llvm.memset.p0.i64(ptr noundef nonnull align 8 dereferenceable(32) %3, i8 0, i64 32, i1 false)
  %11 = load ptr, ptr @gdata, align 8
  %12 = getelementptr inbounds i8, ptr %11, i64 528
  %13 = load i32, ptr %12, align 8
  %14 = and i32 %13, 4
  %.not16 = icmp eq i32 %14, 0
  br i1 %.not16, label %16, label %15

15:                                               ; preds = %10
  tail call void @log_message_begin(ptr noundef nonnull @.str.16, ptr noundef nonnull @.str.17, i32 noundef 176) #4
  tail call void (ptr, ...) @log_message_end(ptr noundef nonnull @.str.18, ptr noundef nonnull @.str.19) #4
  %.pre = load ptr, ptr @gdata, align 8
  br label %16

16:                                               ; preds = %10, %15
  %17 = phi ptr [ %11, %10 ], [ %.pre, %15 ]
  %18 = load ptr, ptr %17, align 8
  %19 = load ptr, ptr %18, align 8
  %20 = getelementptr inbounds i8, ptr %19, i64 64
  %21 = load ptr, ptr %20, align 8
  %22 = call i32 %21(ptr noundef nonnull %18, ptr noundef %5, ptr noundef nonnull %3) #4
  %.not17 = icmp eq i32 %22, 0
  br i1 %.not17, label %25, label %23

23:                                               ; preds = %16
  %24 = call zeroext i16 @map2jdwpError(i32 noundef %22) #4
  call void @outStream_setError(ptr noundef %1, i16 noundef zeroext %24) #4
  br label %29

25:                                               ; preds = %16
  %26 = getelementptr inbounds i8, ptr %3, i64 16
  %27 = load ptr, ptr %26, align 8
  %28 = call zeroext i16 @outStream_writeObjectRef(ptr noundef %4, ptr noundef %1, ptr noundef %27) #4
  br label %29

29:                                               ; preds = %25, %23
  %30 = load ptr, ptr %3, align 8
  %.not18 = icmp eq ptr %30, null
  br i1 %.not18, label %32, label %31

31:                                               ; preds = %29
  call void @jvmtiDeallocate(ptr noundef nonnull %30) #4
  br label %32

32:                                               ; preds = %31, %29
  %33 = load ptr, ptr @gdata, align 8
  %34 = getelementptr inbounds i8, ptr %33, i64 528
  %35 = load i32, ptr %34, align 8
  %36 = and i32 %35, 2
  %.not19 = icmp eq i32 %36, 0
  br i1 %.not19, label %38, label %37

37:                                               ; preds = %32
  call void @log_message_begin(ptr noundef nonnull @.str.20, ptr noundef nonnull @.str.17, i32 noundef 188) #4
  call void (ptr, ...) @log_message_end(ptr noundef nonnull @.str.18, ptr noundef nonnull @.str.21) #4
  br label %38

38:                                               ; preds = %32, %37
  %39 = load ptr, ptr %4, align 8
  %40 = getelementptr inbounds i8, ptr %39, i64 160
  %41 = load ptr, ptr %40, align 8
  %42 = call ptr %41(ptr noundef nonnull %4, ptr noundef null) #4
  br label %43

43:                                               ; preds = %2, %38, %9
  ret i8 1
}